target datalayout = "e-m:e-p270:32:32-p271:32:32-p272:64:64-i64:64-i128:128-f80:128-n8:16:32:64-S128"
target triple = "x86_64-pc-linux-gnu"

@.str.1 = private unnamed_addr constant [15 x i8] c"pg_aggregate.c\00", align 1
@.str.30 = private unnamed_addr constant [27 x i8] c"function %s does not exist\00", align 1
@__func__.lookup_agg_function = private unnamed_addr constant [20 x i8] c"lookup_agg_function\00", align 1
@.str.31 = private unnamed_addr constant [26 x i8] c"function %s returns a set\00", align 1
@.str.32 = private unnamed_addr constant [66 x i8] c"function %s must accept VARIADIC ANY to be used in this aggregate\00", align 1
@.str.33 = private unnamed_addr constant [44 x i8] c"function %s requires run-time type coercion\00", align 1

; Function Attrs: nounwind uwtable
define internal i32 @lookup_agg_function(ptr noundef %0, i32 noundef %1, ptr noundef %2, i32 noundef %3, ptr noundef %4) #0 {
  %6 = alloca ptr, align 8
  %7 = alloca i32, align 4
  %8 = alloca ptr, align 8
  %9 = alloca i32, align 4
  %10 = alloca ptr, align 8
  %11 = alloca i32, align 4
  %12 = alloca i8, align 1
  %13 = alloca i32, align 4
  %14 = alloca i32, align 4
  %15 = alloca ptr, align 8
  %16 = alloca i32, align 4
  %17 = alloca i32, align 4
  %18 = alloca i32, align 4
  store ptr %0, ptr %6, align 8
  store i32 %1, ptr %7, align 4
  store ptr %2, ptr %8, align 8
  store i32 %3, ptr %9, align 4
  store ptr %4, ptr %10, align 8
  call void @llvm.lifetime.start.p0(i64 4, ptr %11) #7
  call void @llvm.lifetime.start.p0(i64 1, ptr %12) #7
  call void @llvm.lifetime.start.p0(i64 4, ptr %13) #7
  call void @llvm.lifetime.start.p0(i64 4, ptr %14) #7
  call void @llvm.lifetime.start.p0(i64 8, ptr %15) #7
  call void @llvm.lifetime.start.p0(i64 4, ptr %16) #7
  call void @llvm.lifetime.start.p0(i64 4, ptr %17) #7
  call void @llvm.lifetime.start.p0(i64 4, ptr %18) #7
  %19 = load ptr, ptr %6, align 8
  %20 = load i32, ptr %7, align 4
  %21 = load ptr, ptr %8, align 8
  %22 = load ptr, ptr %10, align 8
  %23 = call i32 @func_get_detail(ptr noundef %19, ptr noundef null, ptr noundef null, i32 noundef %20, ptr noundef %21, i1 noundef zeroext false, i1 noundef zeroext false, i1 noundef zeroext false, ptr noundef %11, ptr noundef %22, ptr noundef %12, ptr noundef %13, ptr noundef %14, ptr noundef %15, ptr noundef null)
  store i32 %23, ptr %16, align 4
  %24 = load i32, ptr %16, align 4
  %25 = icmp ne i32 %24, 2
  br i1 %25, label %29, label %26

26:                                               ; preds = %5
  %27 = load i32, ptr %11, align 4
  %28 = icmp ne i32 %27, 0
  br i1 %28, label %45, label %29

29:                                               ; preds = %26, %5
  br label %30

30:                                               ; preds = %29
  br i1 true, label %31, label %33

31:                                               ; preds = %30
  %32 = call zeroext i1 @errstart_cold(i32 noundef 21, ptr noundef null) #8
  br i1 %32, label %35, label %42

33:                                               ; preds = %30
  %34 = call zeroext i1 @errstart(i32 noundef 21, ptr noundef null)
  br i1 %34, label %35, label %42

35:                                               ; preds = %33, %31
  %36 = call i32 @errcode(i32 noundef 52461700)
  %37 = load ptr, ptr %6, align 8
  %38 = load i32, ptr %7, align 4
  %39 = load ptr, ptr %8, align 8
  %40 = call ptr @func_signature_string(ptr noundef %37, i32 noundef %38, ptr noundef null, ptr noundef %39)
  %41 = call i32 (ptr, ...) @errmsg(ptr noundef @.str.30, ptr noundef %40)
  call void @errfinish(ptr noundef @.str.1, i32 noundef 860, ptr noundef @__func__.lookup_agg_function)
  br label %42

42:                                               ; preds = %35, %33, %31
  unreachable

43:                                               ; No predecessors!
  br label %44

44:                                               ; preds = %43
  br label %45

45:                                               ; preds = %44, %26
  %46 = load i8, ptr %12, align 1, !range !4, !noundef !5
  %47 = trunc i8 %46 to i1
  br i1 %47, label %48, label %64

48:                                               ; preds = %45
  br label %49

49:                                               ; preds = %48
  br i1 true, label %50, label %52

50:                                               ; preds = %49
  %51 = call zeroext i1 @errstart_cold(i32 noundef 21, ptr noundef null) #8
  br i1 %51, label %54, label %61

52:                                               ; preds = %49
  %53 = call zeroext i1 @errstart(i32 noundef 21, ptr noundef null)
  br i1 %53, label %54, label %61

54:                                               ; preds = %52, %50
  %55 = call i32 @errcode(i32 noundef 67141764)
  %56 = load ptr, ptr %6, align 8
  %57 = load i32, ptr %7, align 4
  %58 = load ptr, ptr %8, align 8
  %59 = call ptr @func_signature_string(ptr noundef %56, i32 noundef %57, ptr noundef null, ptr noundef %58)
  %60 = call i32 (ptr, ...) @errmsg(ptr noundef @.str.31, ptr noundef %59)
  call void @errfinish(ptr noundef @.str.1, i32 noundef 866, ptr noundef @__func__.lookup_agg_function)
  br label %61

61:                                               ; preds = %54, %52, %50
  unreachable

62:                                               ; No predecessors!
  br label %63

63:                                               ; preds = %62
  br label %64

64:                                               ; preds = %63, %45
  %65 = load i32, ptr %9, align 4
  %66 = icmp eq i32 %65, 2276
  br i1 %66, label %67, label %86

67:                                               ; preds = %64
  %68 = load i32, ptr %14, align 4
  %69 = icmp ne i32 %68, 2276
  br i1 %69, label %70, label %86

70:                                               ; preds = %67
  br label %71

71:                                               ; preds = %70
  br i1 true, label %72, label %74

72:                                               ; preds = %71
  %73 = call zeroext i1 @errstart_cold(i32 noundef 21, ptr noundef null) #8
  br i1 %73, label %76, label %83

74:                                               ; preds = %71
  %75 = call zeroext i1 @errstart(i32 noundef 21, ptr noundef null)
  br i1 %75, label %76, label %83

76:                                               ; preds = %74, %72
  %77 = call i32 @errcode(i32 noundef 67141764)
  %78 = load ptr, ptr %6, align 8
  %79 = load i32, ptr %7, align 4
  %80 = load ptr, ptr %8, align 8
  %81 = call ptr @func_signature_string(ptr noundef %78, i32 noundef %79, ptr noundef null, ptr noundef %80)
  %82 = call i32 (ptr, ...) @errmsg(ptr noundef @.str.32, ptr noundef %81)
  call void @errfinish(ptr noundef @.str.1, i32 noundef 881, ptr noundef @__func__.lookup_agg_function)
  br label %83

83:                                               ; preds = %76, %74, %72
  unreachable

84:                                               ; No predecessors!
  br label %85

85:                                               ; preds = %84
  br label %86

86:                                               ; preds = %85, %67, %64
  %87 = load ptr, ptr %8, align 8
  %88 = load ptr, ptr %15, align 8
  %89 = load i32, ptr %7, align 4
  %90 = load ptr, ptr %10, align 8
  %91 = load i32, ptr %90, align 4
  %92 = call i32 @enforce_generic_type_consistency(ptr noundef %87, ptr noundef %88, i32 noundef %89, i32 noundef %91, i1 noundef zeroext true)
  %93 = load ptr, ptr %10, align 8
  store i32 %92, ptr %93, align 4
  store i32 0, ptr %18, align 4
  br label %94

94:                                               ; preds = %127, %86
  %95 = load i32, ptr %18, align 4
  %96 = load i32, ptr %7, align 4
  %97 = icmp slt i32 %95, %96
  br i1 %97, label %98, label %130

98:                                               ; preds = %94
  %99 = load ptr, ptr %8, align 8
  %100 = load i32, ptr %18, align 4
  %101 = sext i32 %100 to i64
  %102 = getelementptr inbounds i32, ptr %99, i64 %101
  %103 = load i32, ptr %102, align 4
  %104 = load ptr, ptr %15, align 8
  %105 = load i32, ptr %18, align 4
  %106 = sext i32 %105 to i64
  %107 = getelementptr inbounds i32, ptr %104, i64 %106
  %108 = load i32, ptr %107, align 4
  %109 = call zeroext i1 @IsBinaryCoercible(i32 noundef %103, i32 noundef %108)
  br i1 %109, label %126, label %110

110:                                              ; preds = %98
  br label %111

111:                                              ; preds = %110
  br i1 true, label %112, label %114

112:                                              ; preds = %111
  %113 = call zeroext i1 @errstart_cold(i32 noundef 21, ptr noundef null) #8
  br i1 %113, label %116, label %123

114:                                              ; preds = %111
  %115 = call zeroext i1 @errstart(i32 noundef 21, ptr noundef null)
  br i1 %115, label %116, label %123

116:                                              ; preds = %114, %112
  %117 = call i32 @errcode(i32 noundef 67141764)
  %118 = load ptr, ptr %6, align 8
  %119 = load i32, ptr %7, align 4
  %120 = load ptr, ptr %15, align 8
  %121 = call ptr @func_signature_string(ptr noundef %118, i32 noundef %119, ptr noundef null, ptr noundef %120)
  %122 = call i32 (ptr, ...) @errmsg(ptr noundef @.str.33, ptr noundef %121)
  call void @errfinish(ptr noundef @.str.1, i32 noundef 905, ptr noundef @__func__.lookup_agg_function)
  br label %123

123:                                              ; preds = %116, %114, %112
  unreachable

124:                                              ; No predecessors!
  br label %125

125:                                              ; preds = %124
  br label %126

126:                                              ; preds = %125, %98
  br label %127

127:                                              ; preds = %126
  %128 = load i32, ptr %18, align 4
  %129 = add i32 %128, 1
  store i32 %129, ptr %18, align 4
  br label %94, !llvm.loop !9

130:                                              ; preds = %94
  %131 = load i32, ptr %11, align 4
  %132 = call i32 @GetUserId()
  %133 = call i32 @object_aclcheck(i32 noundef 1255, i32 noundef %131, i32 noundef %132, i64 noundef 128)
  store i32 %133, ptr %17, align 4
  %134 = load i32, ptr %17, align 4
  %135 = icmp ne i32 %134, 0
  br i1 %135, label %136, label %140

136:                                              ; preds = %130
  %137 = load i32, ptr %17, align 4
  %138 = load i32, ptr %11, align 4
  %139 = call ptr @get_func_name(i32 noundef %138)
  call void @aclcheck_error(i32 noundef %137, i32 noundef 19, ptr noundef %139)
  br label %140

140:                                              ; preds = %136, %130
  %141 = load i32, ptr %11, align 4
  call void @llvm.lifetime.end.p0(i64 4, ptr %18) #7
  call void @llvm.lifetime.end.p0(i64 4, ptr %17) #7
  call void @llvm.lifetime.end.p0(i64 4, ptr %16) #7
  call void @llvm.lifetime.end.p0(i64 8, ptr %15) #7
  call void @llvm.lifetime.end.p0(i64 4, ptr %14) #7
  call void @llvm.lifetime.end.p0(i64 4, ptr %13) #7
  call void @llvm.lifetime.end.p0(i64 1, ptr %12) #7
  call void @llvm.lifetime.end.p0(i64 4, ptr %11) #7
  ret i32 %141
}