; Function Attrs: nounwind uwtable
define internal fastcc i32 @lookup_agg_function(ptr noundef nonnull %0, i32 noundef range(i32 -96, -2147483647) %1, ptr noundef nonnull %2, i32 noundef %3, ptr noundef nonnull %4) unnamed_addr #0 {
  %6 = alloca i32, align 4
  %7 = alloca i8, align 1
  %8 = alloca i32, align 4
  %9 = alloca i32, align 4
  %10 = alloca ptr, align 8
  call void @llvm.lifetime.start.p0(i64 4, ptr nonnull %6) #8
  call void @llvm.lifetime.start.p0(i64 1, ptr nonnull %7) #8
  call void @llvm.lifetime.start.p0(i64 4, ptr nonnull %8) #8
  call void @llvm.lifetime.start.p0(i64 4, ptr nonnull %9) #8
  call void @llvm.lifetime.start.p0(i64 8, ptr nonnull %10) #8
  %11 = call i32 @func_get_detail(ptr noundef nonnull %0, ptr noundef null, ptr noundef null, i32 noundef %1, ptr noundef nonnull %2, i1 noundef zeroext false, i1 noundef zeroext false, i1 noundef zeroext false, ptr noundef nonnull %6, ptr noundef nonnull %4, ptr noundef nonnull %7, ptr noundef nonnull %8, ptr noundef nonnull %9, ptr noundef nonnull %10, ptr noundef null) #8
  %12 = icmp eq i32 %11, 2
  %13 = load i32, ptr %6, align 4
  %14 = icmp ne i32 %13, 0
  %or.cond = select i1 %12, i1 %14, i1 false
  br i1 %or.cond, label %20, label %15

15:                                               ; preds = %5
  %16 = call zeroext i1 @errstart_cold(i32 noundef 21, ptr noundef null) #9
  call void @llvm.assume(i1 %16)
  %17 = call i32 @errcode(i32 noundef 52461700) #8
  %18 = call ptr @func_signature_string(ptr noundef nonnull %0, i32 noundef %1, ptr noundef null, ptr noundef nonnull %2) #8
  %19 = call i32 (ptr, ...) @errmsg(ptr noundef nonnull @.str.30, ptr noundef %18) #8
  call void @errfinish(ptr noundef nonnull @.str.1, i32 noundef 860, ptr noundef nonnull @__func__.lookup_agg_function) #8
  unreachable

20:                                               ; preds = %5
  %21 = load i8, ptr %7, align 1, !range !4, !noundef !5
  %22 = trunc nuw i8 %21 to i1
  br i1 %22, label %23, label %28

23:                                               ; preds = %20
  %24 = call zeroext i1 @errstart_cold(i32 noundef 21, ptr noundef null) #9
  call void @llvm.assume(i1 %24)
  %25 = call i32 @errcode(i32 noundef 67141764) #8
  %26 = call ptr @func_signature_string(ptr noundef nonnull %0, i32 noundef %1, ptr noundef null, ptr noundef nonnull %2) #8
  %27 = call i32 (ptr, ...) @errmsg(ptr noundef nonnull @.str.31, ptr noundef %26) #8
  call void @errfinish(ptr noundef nonnull @.str.1, i32 noundef 866, ptr noundef nonnull @__func__.lookup_agg_function) #8
  unreachable

28:                                               ; preds = %20
  %29 = icmp eq i32 %3, 2276
  %30 = load i32, ptr %9, align 4
  %31 = icmp ne i32 %30, 2276
  %or.cond3 = select i1 %29, i1 %31, i1 false
  br i1 %or.cond3, label %32, label %37

32:                                               ; preds = %28
  %33 = call zeroext i1 @errstart_cold(i32 noundef 21, ptr noundef null) #9
  call void @llvm.assume(i1 %33)
  %34 = call i32 @errcode(i32 noundef 67141764) #8
  %35 = call ptr @func_signature_string(ptr noundef nonnull %0, i32 noundef %1, ptr noundef null, ptr noundef nonnull %2) #8
  %36 = call i32 (ptr, ...) @errmsg(ptr noundef nonnull @.str.32, ptr noundef %35) #8
  call void @errfinish(ptr noundef nonnull @.str.1, i32 noundef 881, ptr noundef nonnull @__func__.lookup_agg_function) #8
  unreachable

37:                                               ; preds = %28
  %38 = load ptr, ptr %10, align 8
  %39 = load i32, ptr %4, align 4
  %40 = call i32 @enforce_generic_type_consistency(ptr noundef nonnull %2, ptr noundef %38, i32 noundef %1, i32 noundef %39, i1 noundef zeroext true) #8
  store i32 %40, ptr %4, align 4
  %41 = icmp sgt i32 %1, 0
  br i1 %41, label %.lr.ph.preheader, label %._crit_edge

.lr.ph.preheader:                                 ; preds = %37
  %wide.trip.count = zext nneg i32 %1 to i64
  br label %.lr.ph

42:                                               ; preds = %.lr.ph
  %indvars.iv.next = add nuw nsw i64 %indvars.iv, 1
  %exitcond.not = icmp eq i64 %indvars.iv.next, %wide.trip.count
  br i1 %exitcond.not, label %._crit_edge, label %.lr.ph, !llvm.loop !8

.lr.ph:                                           ; preds = %.lr.ph.preheader, %42
  %indvars.iv = phi i64 [ 0, %.lr.ph.preheader ], [ %indvars.iv.next, %42 ]
  %43 = getelementptr inbounds nuw i32, ptr %2, i64 %indvars.iv
  %44 = load i32, ptr %43, align 4
  %45 = load ptr, ptr %10, align 8
  %46 = getelementptr inbounds nuw i32, ptr %45, i64 %indvars.iv
  %47 = load i32, ptr %46, align 4
  %48 = call zeroext i1 @IsBinaryCoercible(i32 noundef %44, i32 noundef %47) #8
  br i1 %48, label %42, label %49

49:                                               ; preds = %.lr.ph
  %50 = call zeroext i1 @errstart_cold(i32 noundef 21, ptr noundef null) #9
  call void @llvm.assume(i1 %50)
  %51 = call i32 @errcode(i32 noundef 67141764) #8
  %52 = load ptr, ptr %10, align 8
  %53 = call ptr @func_signature_string(ptr noundef nonnull %0, i32 noundef %1, ptr noundef null, ptr noundef %52) #8
  %54 = call i32 (ptr, ...) @errmsg(ptr noundef nonnull @.str.33, ptr noundef %53) #8
  call void @errfinish(ptr noundef nonnull @.str.1, i32 noundef 905, ptr noundef nonnull @__func__.lookup_agg_function) #8
  unreachable

._crit_edge:                                      ; preds = %42, %37
  %55 = load i32, ptr %6, align 4
  %56 = call i32 @GetUserId() #8
  %57 = call i32 @object_aclcheck(i32 noundef 1255, i32 noundef %55, i32 noundef %56, i64 noundef 128) #8
  %.not = icmp eq i32 %57, 0
  br i1 %.not, label %61, label %58

58:                                               ; preds = %._crit_edge
  %59 = load i32, ptr %6, align 4
  %60 = call ptr @get_func_name(i32 noundef %59) #8
  call void @aclcheck_error(i32 noundef %57, i32 noundef 19, ptr noundef %60) #8
  br label %61

61:                                               ; preds = %58, %._crit_edge
  %62 = load i32, ptr %6, align 4
  call void @llvm.lifetime.end.p0(i64 8, ptr nonnull %10) #8
  call void @llvm.lifetime.end.p0(i64 4, ptr nonnull %9) #8
  call void @llvm.lifetime.end.p0(i64 4, ptr nonnull %8) #8
  call void @llvm.lifetime.end.p0(i64 1, ptr nonnull %7) #8
  call void @llvm.lifetime.end.p0(i64 4, ptr nonnull %6) #8
  ret i32 %62
}